LIBRARY fmodex64
EXPORTS
    "?FS_GetEmulatedChannelsUsed@System@FMOD@@QEAA?AW4FMOD_RESULT@@PEAH@Z"=fmodex64_orig.#1 @1
    "?FS_GetHardwareChannelsUsed@System@FMOD@@QEAA?AW4FMOD_RESULT@@PEAH@Z"=fmodex64_orig.#2 @2
    "?FS_GetOutputPordID@System@FMOD@@QEAAHXZ"=fmodex64_orig.#3 @3
    "?FS_GetSoftwareChannelsUsed@System@FMOD@@QEAA?AW4FMOD_RESULT@@PEAH@Z"=fmodex64_orig.#4 @4
    "?FS_SPEAKER_LEVEL_NUM_MAX@System@FMOD@@2HB"=fmodex64_orig.#5 @5
    "?FS_calculateSpeakerLevels@System@FMOD@@QEAA?AW4FMOD_RESULT@@MMMMMMMMW4FMOD_SPEAKERMODE@@HW4FMOD_SPEAKERMAPTYPE@@PEAMPEAH@Z"=fmodex64_orig.#6 @6
    "?FS_convertMultiChannelLevelToSpeakerLevel@System@FMOD@@QEAA?AW4FMOD_RESULT@@QEAY07MQEAY07$$CBMH@Z"=fmodex64_orig.#7 @7
    "?System_GetDebugLevel@FMOD@@YAIXZ"=fmodex64_orig.#8 @8
    "?System_GetDebugMode@FMOD@@YAIXZ"=fmodex64_orig.#9 @9
    "?System_SetDebugLevel@FMOD@@YA?AW4FMOD_RESULT@@I@Z"=fmodex64_orig.#10 @10
    "?System_SetDebugMode@FMOD@@YA?AW4FMOD_RESULT@@I@Z"=fmodex64_orig.#11 @11
    "?addCallback@AsyncThread@FMOD@@QEAA?AW4FMOD_RESULT@@P6A?AW43@H@Z@Z"=fmodex64_orig.#12 @12
    "?addDSP@Channel@FMOD@@QEAA?AW4FMOD_RESULT@@PEAVDSP@2@PEAPEAVDSPConnection@2@@Z"=fmodex64_orig.#13 @13
    "?addDSP@ChannelGroup@FMOD@@QEAA?AW4FMOD_RESULT@@PEAVDSP@2@PEAPEAVDSPConnection@2@@Z"=fmodex64_orig.#14 @14
    "?addDSP@System@FMOD@@QEAA?AW4FMOD_RESULT@@PEAVDSP@2@PEAPEAVDSPConnection@2@@Z"=fmodex64_orig.#15 @15
    "?addGroup@ChannelGroup@FMOD@@QEAA?AW4FMOD_RESULT@@PEAV12@@Z"=fmodex64_orig.#16 @16
    "?addInput@DSP@FMOD@@QEAA?AW4FMOD_RESULT@@PEAV12@PEAPEAVDSPConnection@2@@Z"=fmodex64_orig.#17 @17
    "?addPolygon@Geometry@FMOD@@QEAA?AW4FMOD_RESULT@@MM_NHPEBUFMOD_VECTOR@@PEAH@Z"=fmodex64_orig.#18 @18
    "?addSyncPoint@Sound@FMOD@@QEAA?AW4FMOD_RESULT@@IIPEBDPEAPEAUFMOD_SYNCPOINT@@@Z"=fmodex64_orig.#19 @19
    "?attachFileSystem@System@FMOD@@QEAA?AW4FMOD_RESULT@@P6A?AW43@PEBDHPEAIPEAPEAX2@ZP6A?AW43@PEAX4@ZP6A?AW43@44I14@ZP6A?AW43@4I4@Z@Z"=fmodex64_orig.#20 @20
    "?close@System@FMOD@@QEAA?AW4FMOD_RESULT@@XZ"=fmodex64_orig.#21 @21
    "?createChannelGroup@System@FMOD@@QEAA?AW4FMOD_RESULT@@PEBDPEAPEAVChannelGroup@2@@Z"=fmodex64_orig.#22 @22
    "?createChannelGroupInternal@SystemI@FMOD@@QEAA?AW4FMOD_RESULT@@PEBDPEAPEAVChannelGroupI@2@_N2@Z"=fmodex64_orig.#23 @23
    "?createDSP@System@FMOD@@QEAA?AW4FMOD_RESULT@@PEAUFMOD_DSP_DESCRIPTION@@PEAPEAVDSP@2@@Z"=fmodex64_orig.#24 @24
    "?createDSPByPlugin@System@FMOD@@QEAA?AW4FMOD_RESULT@@IPEAPEAVDSP@2@@Z"=fmodex64_orig.#25 @25
    "?createDSPByType@System@FMOD@@QEAA?AW4FMOD_RESULT@@W4FMOD_DSP_TYPE@@PEAPEAVDSP@2@@Z"=fmodex64_orig.#26 @26
    "?createGeometry@System@FMOD@@QEAA?AW4FMOD_RESULT@@HHPEAPEAVGeometry@2@@Z"=fmodex64_orig.#27 @27
    "?createReverb@System@FMOD@@QEAA?AW4FMOD_RESULT@@PEAPEAVReverb@2@@Z"=fmodex64_orig.#28 @28
    "?createSound@System@FMOD@@QEAA?AW4FMOD_RESULT@@PEBDIPEAUFMOD_CREATESOUNDEXINFO@@PEAPEAVSound@2@@Z"=createSound_detour @29
    "?createSoundGroup@System@FMOD@@QEAA?AW4FMOD_RESULT@@PEBDPEAPEAVSoundGroup@2@@Z"=fmodex64_orig.#30 @30
    "?createSoundInternal@SystemI@FMOD@@QEAA?AW4FMOD_RESULT@@PEBDIIIPEAUFMOD_CREATESOUNDEXINFO@@PEAPEAVFile@2@_NPEAPEAVSoundI@2@@Z"=fmodex64_orig.#31 @31
    "?createStream@System@FMOD@@QEAA?AW4FMOD_RESULT@@PEBDIPEAUFMOD_CREATESOUNDEXINFO@@PEAPEAVSound@2@@Z"=createStream_detour @32
    "?deleteSyncPoint@Sound@FMOD@@QEAA?AW4FMOD_RESULT@@PEAUFMOD_SYNCPOINT@@@Z"=fmodex64_orig.#33 @33
    "?disconnectAll@DSP@FMOD@@QEAA?AW4FMOD_RESULT@@_N0@Z"=fmodex64_orig.#34 @34
    "?disconnectFrom@DSP@FMOD@@QEAA?AW4FMOD_RESULT@@PEAV12@@Z"=fmodex64_orig.#35 @35
    "?get3DAttributes@Channel@FMOD@@QEAA?AW4FMOD_RESULT@@PEAUFMOD_VECTOR@@0@Z"=fmodex64_orig.#36 @36
    "?get3DAttributes@Reverb@FMOD@@QEAA?AW4FMOD_RESULT@@PEAUFMOD_VECTOR@@PEAM1@Z"=fmodex64_orig.#37 @37
    "?get3DConeOrientation@Channel@FMOD@@QEAA?AW4FMOD_RESULT@@PEAUFMOD_VECTOR@@@Z"=fmodex64_orig.#38 @38
    "?get3DConeSettings@Channel@FMOD@@QEAA?AW4FMOD_RESULT@@PEAM00@Z"=fmodex64_orig.#39 @39
    "?get3DConeSettings@Sound@FMOD@@QEAA?AW4FMOD_RESULT@@PEAM00@Z"=fmodex64_orig.#40 @40
    "?get3DCustomRolloff@Channel@FMOD@@QEAA?AW4FMOD_RESULT@@PEAPEAUFMOD_VECTOR@@PEAH@Z"=fmodex64_orig.#41 @41
    "?get3DCustomRolloff@Sound@FMOD@@QEAA?AW4FMOD_RESULT@@PEAPEAUFMOD_VECTOR@@PEAH@Z"=fmodex64_orig.#42 @42
    "?get3DDistanceFilter@Channel@FMOD@@QEAA?AW4FMOD_RESULT@@PEA_NPEAM1@Z"=fmodex64_orig.#43 @43
    "?get3DDopplerLevel@Channel@FMOD@@QEAA?AW4FMOD_RESULT@@PEAM@Z"=fmodex64_orig.#44 @44
    "?get3DListenerAttributes@System@FMOD@@QEAA?AW4FMOD_RESULT@@HPEAUFMOD_VECTOR@@000@Z"=fmodex64_orig.#45 @45
    "?get3DMinMaxDistance@Channel@FMOD@@QEAA?AW4FMOD_RESULT@@PEAM0@Z"=fmodex64_orig.#46 @46
    "?get3DMinMaxDistance@Sound@FMOD@@QEAA?AW4FMOD_RESULT@@PEAM0@Z"=fmodex64_orig.#47 @47
    "?get3DNumListeners@System@FMOD@@QEAA?AW4FMOD_RESULT@@PEAH@Z"=fmodex64_orig.#48 @48
    "?get3DOcclusion@Channel@FMOD@@QEAA?AW4FMOD_RESULT@@PEAM0@Z"=fmodex64_orig.#49 @49
    "?get3DOcclusion@ChannelGroup@FMOD@@QEAA?AW4FMOD_RESULT@@PEAM0@Z"=fmodex64_orig.#50 @50
    "?get3DPanLevel@Channel@FMOD@@QEAA?AW4FMOD_RESULT@@PEAM@Z"=fmodex64_orig.#51 @51
    "?get3DSettings@System@FMOD@@QEAA?AW4FMOD_RESULT@@PEAM00@Z"=fmodex64_orig.#52 @52
    "?get3DSpeakerPosition@System@FMOD@@QEAA?AW4FMOD_RESULT@@W4FMOD_SPEAKER@@PEAM1PEA_N@Z"=fmodex64_orig.#53 @53
    "?get3DSpread@Channel@FMOD@@QEAA?AW4FMOD_RESULT@@PEAM@Z"=fmodex64_orig.#54 @54
    "?getActive@DSP@FMOD@@QEAA?AW4FMOD_RESULT@@PEA_N@Z"=fmodex64_orig.#55 @55
    "?getActive@Geometry@FMOD@@QEAA?AW4FMOD_RESULT@@PEA_N@Z"=fmodex64_orig.#56 @56
    "?getActive@Reverb@FMOD@@QEAA?AW4FMOD_RESULT@@PEA_N@Z"=fmodex64_orig.#57 @57
    "?getAdvancedSettings@System@FMOD@@QEAA?AW4FMOD_RESULT@@PEAUFMOD_ADVANCEDSETTINGS@@@Z"=fmodex64_orig.#58 @58
    "?getAsyncThread@AsyncThread@FMOD@@SA?AW4FMOD_RESULT@@PEAVSystemI@2@HPEAPEAV12@@Z"=fmodex64_orig.#59 @59
    "?getAudibility@Channel@FMOD@@QEAA?AW4FMOD_RESULT@@PEAM@Z"=fmodex64_orig.#60 @60
    "?getBypass@DSP@FMOD@@QEAA?AW4FMOD_RESULT@@PEA_N@Z"=fmodex64_orig.#61 @61
    "?getCDROMDriveName@System@FMOD@@QEAA?AW4FMOD_RESULT@@HPEADH0H0H@Z"=fmodex64_orig.#62 @62
    "?getCPUUsage@System@FMOD@@QEAA?AW4FMOD_RESULT@@PEAM0000@Z"=fmodex64_orig.#63 @63
    "?getChannel@ChannelGroup@FMOD@@QEAA?AW4FMOD_RESULT@@HPEAPEAVChannel@2@@Z"=fmodex64_orig.#64 @64
    "?getChannel@System@FMOD@@QEAA?AW4FMOD_RESULT@@HPEAPEAVChannel@2@@Z"=fmodex64_orig.#65 @65
    "?getChannelGroup@Channel@FMOD@@QEAA?AW4FMOD_RESULT@@PEAPEAVChannelGroup@2@@Z"=fmodex64_orig.#66 @66
    "?getChannelsPlaying@System@FMOD@@QEAA?AW4FMOD_RESULT@@PEAH@Z"=fmodex64_orig.#67 @67
    "?getCurrentSound@Channel@FMOD@@QEAA?AW4FMOD_RESULT@@PEAPEAVSound@2@@Z"=fmodex64_orig.#68 @68
    "?getDSPBufferSize@System@FMOD@@QEAA?AW4FMOD_RESULT@@PEAIPEAH@Z"=fmodex64_orig.#69 @69
    "?getDSPClock@System@FMOD@@QEAA?AW4FMOD_RESULT@@PEAI0@Z"=fmodex64_orig.#70 @70
    "?getDSPHead@Channel@FMOD@@QEAA?AW4FMOD_RESULT@@PEAPEAVDSP@2@@Z"=fmodex64_orig.#71 @71
    "?getDSPHead@ChannelGroup@FMOD@@QEAA?AW4FMOD_RESULT@@PEAPEAVDSP@2@@Z"=fmodex64_orig.#72 @72
    "?getDSPHead@System@FMOD@@QEAA?AW4FMOD_RESULT@@PEAPEAVDSP@2@@Z"=fmodex64_orig.#73 @73
    "?getDefaults@DSP@FMOD@@QEAA?AW4FMOD_RESULT@@PEAM00PEAH@Z"=fmodex64_orig.#74 @74
    "?getDefaults@Sound@FMOD@@QEAA?AW4FMOD_RESULT@@PEAM00PEAH@Z"=fmodex64_orig.#75 @75
    "?getDelay@Channel@FMOD@@QEAA?AW4FMOD_RESULT@@W4FMOD_DELAYTYPE@@PEAI1@Z"=fmodex64_orig.#76 @76
    "?getDriver@System@FMOD@@QEAA?AW4FMOD_RESULT@@PEAH@Z"=fmodex64_orig.#77 @77
    "?getDriverCaps@System@FMOD@@QEAA?AW4FMOD_RESULT@@HPEAIPEAHPEAW4FMOD_SPEAKERMODE@@@Z"=fmodex64_orig.#78 @78
    "?getDriverInfo@System@FMOD@@QEAA?AW4FMOD_RESULT@@HPEADHPEAUFMOD_GUID@@@Z"=fmodex64_orig.#79 @79
    "?getDriverInfoW@System@FMOD@@QEAA?AW4FMOD_RESULT@@HPEAFHPEAUFMOD_GUID@@@Z"=fmodex64_orig.#80 @80
    "?getFinalFrequency@ChannelI@FMOD@@QEAA?AW4FMOD_RESULT@@PEAM@Z"=fmodex64_orig.#81 @81
    "?getFormat@Sound@FMOD@@QEAA?AW4FMOD_RESULT@@PEAW4FMOD_SOUND_TYPE@@PEAW4FMOD_SOUND_FORMAT@@PEAH2@Z"=fmodex64_orig.#82 @82
    "?getFrequency@Channel@FMOD@@QEAA?AW4FMOD_RESULT@@PEAM@Z"=fmodex64_orig.#83 @83
    "?getGeometryOcclusion@System@FMOD@@QEAA?AW4FMOD_RESULT@@PEBUFMOD_VECTOR@@0PEAM1@Z"=fmodex64_orig.#84 @84
    "?getGeometrySettings@System@FMOD@@QEAA?AW4FMOD_RESULT@@PEAM@Z"=fmodex64_orig.#85 @85
    "?getGlobals@SystemI@FMOD@@SA?AW4FMOD_RESULT@@PEAPEAVGlobal@2@@Z"=fmodex64_orig.#86 @86
    "?getGroup@ChannelGroup@FMOD@@QEAA?AW4FMOD_RESULT@@HPEAPEAV12@@Z"=fmodex64_orig.#87 @87
    "?getHardwareChannels@System@FMOD@@QEAA?AW4FMOD_RESULT@@PEAH@Z"=fmodex64_orig.#88 @88
    "?getIndex@Channel@FMOD@@QEAA?AW4FMOD_RESULT@@PEAH@Z"=fmodex64_orig.#89 @89
    "?getInfo@DSP@FMOD@@QEAA?AW4FMOD_RESULT@@PEADPEAIPEAH22@Z"=fmodex64_orig.#90 @90
    "?getInput@DSP@FMOD@@QEAA?AW4FMOD_RESULT@@HPEAPEAV12@PEAPEAVDSPConnection@2@@Z"=fmodex64_orig.#91 @91
    "?getInput@DSPConnection@FMOD@@QEAA?AW4FMOD_RESULT@@PEAPEAVDSP@2@@Z"=fmodex64_orig.#92 @92
    "?getInputChannelMix@Channel@FMOD@@QEAA?AW4FMOD_RESULT@@PEAMH@Z"=fmodex64_orig.#93 @93
    "?getLength@Sound@FMOD@@QEAA?AW4FMOD_RESULT@@PEAII@Z"=fmodex64_orig.#94 @94
    "?getLevels@DSPConnection@FMOD@@QEAA?AW4FMOD_RESULT@@W4FMOD_SPEAKER@@PEAMH@Z"=fmodex64_orig.#95 @95
    "?getLoopCount@Channel@FMOD@@QEAA?AW4FMOD_RESULT@@PEAH@Z"=fmodex64_orig.#96 @96
    "?getLoopCount@Sound@FMOD@@QEAA?AW4FMOD_RESULT@@PEAH@Z"=fmodex64_orig.#97 @97
    "?getLoopPoints@Channel@FMOD@@QEAA?AW4FMOD_RESULT@@PEAII0I@Z"=fmodex64_orig.#98 @98
    "?getLoopPoints@Sound@FMOD@@QEAA?AW4FMOD_RESULT@@PEAII0I@Z"=fmodex64_orig.#99 @99
    "?getLowPassGain@Channel@FMOD@@QEAA?AW4FMOD_RESULT@@PEAM@Z"=fmodex64_orig.#100 @100
    "?getMasterChannelGroup@System@FMOD@@QEAA?AW4FMOD_RESULT@@PEAPEAVChannelGroup@2@@Z"=fmodex64_orig.#101 @101
    "?getMasterSoundGroup@System@FMOD@@QEAA?AW4FMOD_RESULT@@PEAPEAVSoundGroup@2@@Z"=fmodex64_orig.#102 @102
    "?getMaxAudible@SoundGroup@FMOD@@QEAA?AW4FMOD_RESULT@@PEAH@Z"=fmodex64_orig.#103 @103
    "?getMaxAudibleBehavior@SoundGroup@FMOD@@QEAA?AW4FMOD_RESULT@@PEAW4FMOD_SOUNDGROUP_BEHAVIOR@@@Z"=fmodex64_orig.#104 @104
    "?getMaxPolygons@Geometry@FMOD@@QEAA?AW4FMOD_RESULT@@PEAH0@Z"=fmodex64_orig.#105 @105
    "?getMemoryInfo@Channel@FMOD@@QEAA?AW4FMOD_RESULT@@IIPEAIPEAUFMOD_MEMORY_USAGE_DETAILS@@@Z"=fmodex64_orig.#106 @106
    "?getMemoryInfo@ChannelGroup@FMOD@@QEAA?AW4FMOD_RESULT@@IIPEAIPEAUFMOD_MEMORY_USAGE_DETAILS@@@Z"=fmodex64_orig.#107 @107
    "?getMemoryInfo@DSP@FMOD@@QEAA?AW4FMOD_RESULT@@IIPEAIPEAUFMOD_MEMORY_USAGE_DETAILS@@@Z"=fmodex64_orig.#108 @108
    "?getMemoryInfo@DSPConnection@FMOD@@QEAA?AW4FMOD_RESULT@@IIPEAIPEAUFMOD_MEMORY_USAGE_DETAILS@@@Z"=fmodex64_orig.#109 @109
    "?getMemoryInfo@Geometry@FMOD@@QEAA?AW4FMOD_RESULT@@IIPEAIPEAUFMOD_MEMORY_USAGE_DETAILS@@@Z"=fmodex64_orig.#110 @110
    "?getMemoryInfo@GeometryI@FMOD@@QEAA?AW4FMOD_RESULT@@IIPEAIPEAUFMOD_MEMORY_USAGE_DETAILS@@@Z"=fmodex64_orig.#111 @111
    "?getMemoryInfo@Reverb@FMOD@@QEAA?AW4FMOD_RESULT@@IIPEAIPEAUFMOD_MEMORY_USAGE_DETAILS@@@Z"=fmodex64_orig.#112 @112
    "?getMemoryInfo@Sound@FMOD@@QEAA?AW4FMOD_RESULT@@IIPEAIPEAUFMOD_MEMORY_USAGE_DETAILS@@@Z"=fmodex64_orig.#113 @113
    "?getMemoryInfo@SoundGroup@FMOD@@QEAA?AW4FMOD_RESULT@@IIPEAIPEAUFMOD_MEMORY_USAGE_DETAILS@@@Z"=fmodex64_orig.#114 @114
    "?getMemoryInfo@System@FMOD@@QEAA?AW4FMOD_RESULT@@IIPEAIPEAUFMOD_MEMORY_USAGE_DETAILS@@@Z"=fmodex64_orig.#115 @115
    "?getMemoryUsedImpl@SystemI@FMOD@@QEAA?AW4FMOD_RESULT@@PEAVMemoryTracker@2@@Z"=fmodex64_orig.#116 @116
    "?getMix@DSPConnection@FMOD@@QEAA?AW4FMOD_RESULT@@PEAM@Z"=fmodex64_orig.#117 @117
    "?getMode@Channel@FMOD@@QEAA?AW4FMOD_RESULT@@PEAI@Z"=fmodex64_orig.#118 @118
    "?getMode@Sound@FMOD@@QEAA?AW4FMOD_RESULT@@PEAI@Z"=fmodex64_orig.#119 @119
    "?getMusicChannelVolume@Sound@FMOD@@QEAA?AW4FMOD_RESULT@@HPEAM@Z"=fmodex64_orig.#120 @120
    "?getMusicNumChannels@Sound@FMOD@@QEAA?AW4FMOD_RESULT@@PEAH@Z"=fmodex64_orig.#121 @121
    "?getMusicSpeed@Sound@FMOD@@QEAA?AW4FMOD_RESULT@@PEAM@Z"=fmodex64_orig.#122 @122
    "?getMute@Channel@FMOD@@QEAA?AW4FMOD_RESULT@@PEA_N@Z"=fmodex64_orig.#123 @123
    "?getMute@ChannelGroup@FMOD@@QEAA?AW4FMOD_RESULT@@PEA_N@Z"=fmodex64_orig.#124 @124
    "?getMuteFadeSpeed@SoundGroup@FMOD@@QEAA?AW4FMOD_RESULT@@PEAM@Z"=fmodex64_orig.#125 @125
    "?getName@ChannelGroup@FMOD@@QEAA?AW4FMOD_RESULT@@PEADH@Z"=fmodex64_orig.#126 @126
    "?getName@Sound@FMOD@@QEAA?AW4FMOD_RESULT@@PEADH@Z"=fmodex64_orig.#127 @127
    "?getName@SoundGroup@FMOD@@QEAA?AW4FMOD_RESULT@@PEADH@Z"=fmodex64_orig.#128 @128
    "?getNetworkProxy@System@FMOD@@QEAA?AW4FMOD_RESULT@@PEADH@Z"=fmodex64_orig.#129 @129
    "?getNetworkTimeout@System@FMOD@@QEAA?AW4FMOD_RESULT@@PEAH@Z"=fmodex64_orig.#130 @130
    "?getNumCDROMDrives@System@FMOD@@QEAA?AW4FMOD_RESULT@@PEAH@Z"=fmodex64_orig.#131 @131
    "?getNumChannels@ChannelGroup@FMOD@@QEAA?AW4FMOD_RESULT@@PEAH@Z"=fmodex64_orig.#132 @132
    "?getNumDrivers@System@FMOD@@QEAA?AW4FMOD_RESULT@@PEAH@Z"=fmodex64_orig.#133 @133
    "?getNumGroups@ChannelGroup@FMOD@@QEAA?AW4FMOD_RESULT@@PEAH@Z"=fmodex64_orig.#134 @134
    "?getNumInputs@DSP@FMOD@@QEAA?AW4FMOD_RESULT@@PEAH@Z"=fmodex64_orig.#135 @135
    "?getNumOutputs@DSP@FMOD@@QEAA?AW4FMOD_RESULT@@PEAH@Z"=fmodex64_orig.#136 @136
    "?getNumParameters@DSP@FMOD@@QEAA?AW4FMOD_RESULT@@PEAH@Z"=fmodex64_orig.#137 @137
    "?getNumPlaying@SoundGroup@FMOD@@QEAA?AW4FMOD_RESULT@@PEAH@Z"=fmodex64_orig.#138 @138
    "?getNumPlugins@System@FMOD@@QEAA?AW4FMOD_RESULT@@W4FMOD_PLUGINTYPE@@PEAH@Z"=fmodex64_orig.#139 @139
    "?getNumPolygons@Geometry@FMOD@@QEAA?AW4FMOD_RESULT@@PEAH@Z"=fmodex64_orig.#140 @140
    "?getNumSounds@SoundGroup@FMOD@@QEAA?AW4FMOD_RESULT@@PEAH@Z"=fmodex64_orig.#141 @141
    "?getNumSubSounds@Sound@FMOD@@QEAA?AW4FMOD_RESULT@@PEAH@Z"=fmodex64_orig.#142 @142
    "?getNumSyncPoints@Sound@FMOD@@QEAA?AW4FMOD_RESULT@@PEAH@Z"=fmodex64_orig.#143 @143
    "?getNumTags@Sound@FMOD@@QEAA?AW4FMOD_RESULT@@PEAH0@Z"=fmodex64_orig.#144 @144
    "?getOpenState@Sound@FMOD@@QEAA?AW4FMOD_RESULT@@PEAW4FMOD_OPENSTATE@@PEAIPEA_N2@Z"=fmodex64_orig.#145 @145
    "?getOutput@DSP@FMOD@@QEAA?AW4FMOD_RESULT@@HPEAPEAV12@PEAPEAVDSPConnection@2@@Z"=fmodex64_orig.#146 @146
    "?getOutput@DSPConnection@FMOD@@QEAA?AW4FMOD_RESULT@@PEAPEAVDSP@2@@Z"=fmodex64_orig.#147 @147
    "?getOutput@System@FMOD@@QEAA?AW4FMOD_RESULT@@PEAW4FMOD_OUTPUTTYPE@@@Z"=fmodex64_orig.#148 @148
    "?getOutputByPlugin@System@FMOD@@QEAA?AW4FMOD_RESULT@@PEAI@Z"=fmodex64_orig.#149 @149
    "?getOutputHandle@System@FMOD@@QEAA?AW4FMOD_RESULT@@PEAPEAX@Z"=fmodex64_orig.#150 @150
    "?getPan@Channel@FMOD@@QEAA?AW4FMOD_RESULT@@PEAM@Z"=fmodex64_orig.#151 @151
    "?getParameter@DSP@FMOD@@QEAA?AW4FMOD_RESULT@@HPEAMPEADH@Z"=fmodex64_orig.#152 @152
    "?getParameterInfo@DSP@FMOD@@QEAA?AW4FMOD_RESULT@@HPEAD00HPEAM1@Z"=fmodex64_orig.#153 @153
    "?getParentGroup@ChannelGroup@FMOD@@QEAA?AW4FMOD_RESULT@@PEAPEAV12@@Z"=fmodex64_orig.#154 @154
    "?getPaused@Channel@FMOD@@QEAA?AW4FMOD_RESULT@@PEA_N@Z"=fmodex64_orig.#155 @155
    "?getPaused@ChannelGroup@FMOD@@QEAA?AW4FMOD_RESULT@@PEA_N@Z"=fmodex64_orig.#156 @156
    "?getPitch@ChannelGroup@FMOD@@QEAA?AW4FMOD_RESULT@@PEAM@Z"=fmodex64_orig.#157 @157
    "?getPluginHandle@System@FMOD@@QEAA?AW4FMOD_RESULT@@W4FMOD_PLUGINTYPE@@HPEAI@Z"=fmodex64_orig.#158 @158
    "?getPluginInfo@System@FMOD@@QEAA?AW4FMOD_RESULT@@IPEAW4FMOD_PLUGINTYPE@@PEADHPEAI@Z"=fmodex64_orig.#159 @159
    "?getPolygonAttributes@Geometry@FMOD@@QEAA?AW4FMOD_RESULT@@HPEAM0PEA_N@Z"=fmodex64_orig.#160 @160
    "?getPolygonNumVertices@Geometry@FMOD@@QEAA?AW4FMOD_RESULT@@HPEAH@Z"=fmodex64_orig.#161 @161
    "?getPolygonVertex@Geometry@FMOD@@QEAA?AW4FMOD_RESULT@@HHPEAUFMOD_VECTOR@@@Z"=fmodex64_orig.#162 @162
    "?getPosition@Channel@FMOD@@QEAA?AW4FMOD_RESULT@@PEAII@Z"=fmodex64_orig.#163 @163
    "?getPosition@Geometry@FMOD@@QEAA?AW4FMOD_RESULT@@PEAUFMOD_VECTOR@@@Z"=fmodex64_orig.#164 @164
    "?getPriority@Channel@FMOD@@QEAA?AW4FMOD_RESULT@@PEAH@Z"=fmodex64_orig.#165 @165
    "?getProperties@Reverb@FMOD@@QEAA?AW4FMOD_RESULT@@PEAUFMOD_REVERB_PROPERTIES@@@Z"=fmodex64_orig.#166 @166
    "?getRecordDriverCaps@System@FMOD@@QEAA?AW4FMOD_RESULT@@HPEAIPEAH1@Z"=fmodex64_orig.#167 @167
    "?getRecordDriverInfo@System@FMOD@@QEAA?AW4FMOD_RESULT@@HPEADHPEAUFMOD_GUID@@@Z"=fmodex64_orig.#168 @168
    "?getRecordDriverInfoW@System@FMOD@@QEAA?AW4FMOD_RESULT@@HPEAFHPEAUFMOD_GUID@@@Z"=fmodex64_orig.#169 @169
    "?getRecordNumDrivers@System@FMOD@@QEAA?AW4FMOD_RESULT@@PEAH@Z"=fmodex64_orig.#170 @170
    "?getRecordPosition@System@FMOD@@QEAA?AW4FMOD_RESULT@@HPEAI@Z"=fmodex64_orig.#171 @171
    "?getReverbAmbientProperties@System@FMOD@@QEAA?AW4FMOD_RESULT@@PEAUFMOD_REVERB_PROPERTIES@@@Z"=fmodex64_orig.#172 @172
    "?getReverbProperties@Channel@FMOD@@QEAA?AW4FMOD_RESULT@@PEAUFMOD_REVERB_CHANNELPROPERTIES@@@Z"=fmodex64_orig.#173 @173
    "?getReverbProperties@System@FMOD@@QEAA?AW4FMOD_RESULT@@PEAUFMOD_REVERB_PROPERTIES@@@Z"=fmodex64_orig.#174 @174
    "?getRotation@Geometry@FMOD@@QEAA?AW4FMOD_RESULT@@PEAUFMOD_VECTOR@@0@Z"=fmodex64_orig.#175 @175
    "?getScale@Geometry@FMOD@@QEAA?AW4FMOD_RESULT@@PEAUFMOD_VECTOR@@@Z"=fmodex64_orig.#176 @176
    "?getSoftwareChannels@System@FMOD@@QEAA?AW4FMOD_RESULT@@PEAH@Z"=fmodex64_orig.#177 @177
    "?getSoftwareFormat@System@FMOD@@QEAA?AW4FMOD_RESULT@@PEAHPEAW4FMOD_SOUND_FORMAT@@00PEAW4FMOD_DSP_RESAMPLER@@0@Z"=fmodex64_orig.#178 @178
    "?getSound@SoundGroup@FMOD@@QEAA?AW4FMOD_RESULT@@HPEAPEAVSound@2@@Z"=fmodex64_orig.#179 @179
    "?getSoundGroup@Sound@FMOD@@QEAA?AW4FMOD_RESULT@@PEAPEAVSoundGroup@2@@Z"=fmodex64_orig.#180 @180
    "?getSoundList@SystemI@FMOD@@QEAA?AW4FMOD_RESULT@@PEAPEAVSoundI@2@@Z"=fmodex64_orig.#181 @181
    "?getSoundRAM@System@FMOD@@QEAA?AW4FMOD_RESULT@@PEAH00@Z"=fmodex64_orig.#182 @182
    "?getSpeakerActive@DSP@FMOD@@QEAA?AW4FMOD_RESULT@@W4FMOD_SPEAKER@@PEA_N@Z"=fmodex64_orig.#183 @183
    "?getSpeakerLevels@Channel@FMOD@@QEAA?AW4FMOD_RESULT@@W4FMOD_SPEAKER@@PEAMH@Z"=fmodex64_orig.#184 @184
    "?getSpeakerMix@Channel@FMOD@@QEAA?AW4FMOD_RESULT@@PEAM0000000@Z"=fmodex64_orig.#185 @185
    "?getSpeakerMode@System@FMOD@@QEAA?AW4FMOD_RESULT@@PEAW4FMOD_SPEAKERMODE@@@Z"=fmodex64_orig.#186 @186
    "?getSpectrum@Channel@FMOD@@QEAA?AW4FMOD_RESULT@@PEAMHHW4FMOD_DSP_FFT_WINDOW@@@Z"=fmodex64_orig.#187 @187
    "?getSpectrum@ChannelGroup@FMOD@@QEAA?AW4FMOD_RESULT@@PEAMHHW4FMOD_DSP_FFT_WINDOW@@@Z"=fmodex64_orig.#188 @188
    "?getSpectrum@System@FMOD@@QEAA?AW4FMOD_RESULT@@PEAMHHW4FMOD_DSP_FFT_WINDOW@@@Z"=fmodex64_orig.#189 @189
    "?getStreamBufferSize@System@FMOD@@QEAA?AW4FMOD_RESULT@@PEAI0@Z"=fmodex64_orig.#190 @190
    "?getSubSound@Sound@FMOD@@QEAA?AW4FMOD_RESULT@@HPEAPEAV12@@Z"=fmodex64_orig.#191 @191
    "?getSubSoundParent@Sound@FMOD@@QEAA?AW4FMOD_RESULT@@PEAPEAV12@@Z"=fmodex64_orig.#192 @192
    "?getSyncPoint@Sound@FMOD@@QEAA?AW4FMOD_RESULT@@HPEAPEAUFMOD_SYNCPOINT@@@Z"=fmodex64_orig.#193 @193
    "?getSyncPointInfo@Sound@FMOD@@QEAA?AW4FMOD_RESULT@@PEAUFMOD_SYNCPOINT@@PEADHPEAII@Z"=fmodex64_orig.#194 @194
    "?getSystemObject@Channel@FMOD@@QEAA?AW4FMOD_RESULT@@PEAPEAVSystem@2@@Z"=fmodex64_orig.#195 @195
    "?getSystemObject@ChannelGroup@FMOD@@QEAA?AW4FMOD_RESULT@@PEAPEAVSystem@2@@Z"=fmodex64_orig.#196 @196
    "?getSystemObject@DSP@FMOD@@QEAA?AW4FMOD_RESULT@@PEAPEAVSystem@2@@Z"=fmodex64_orig.#197 @197
    "?getSystemObject@Sound@FMOD@@QEAA?AW4FMOD_RESULT@@PEAPEAVSystem@2@@Z"=fmodex64_orig.#198 @198
    "?getSystemObject@SoundGroup@FMOD@@QEAA?AW4FMOD_RESULT@@PEAPEAVSystem@2@@Z"=fmodex64_orig.#199 @199
    "?getTag@Sound@FMOD@@QEAA?AW4FMOD_RESULT@@PEBDHPEAUFMOD_TAG@@@Z"=fmodex64_orig.#200 @200
    "?getType@DSP@FMOD@@QEAA?AW4FMOD_RESULT@@PEAW4FMOD_DSP_TYPE@@@Z"=fmodex64_orig.#201 @201
    "?getUserData@Channel@FMOD@@QEAA?AW4FMOD_RESULT@@PEAPEAX@Z"=fmodex64_orig.#202 @202
    "?getUserData@ChannelGroup@FMOD@@QEAA?AW4FMOD_RESULT@@PEAPEAX@Z"=fmodex64_orig.#203 @203
    "?getUserData@DSP@FMOD@@QEAA?AW4FMOD_RESULT@@PEAPEAX@Z"=fmodex64_orig.#204 @204
    "?getUserData@DSPConnection@FMOD@@QEAA?AW4FMOD_RESULT@@PEAPEAX@Z"=fmodex64_orig.#205 @205
    "?getUserData@Geometry@FMOD@@QEAA?AW4FMOD_RESULT@@PEAPEAX@Z"=fmodex64_orig.#206 @206
    "?getUserData@GeometryI@FMOD@@QEAA?AW4FMOD_RESULT@@PEAPEAX@Z"=fmodex64_orig.#207 @207
    "?getUserData@Reverb@FMOD@@QEAA?AW4FMOD_RESULT@@PEAPEAX@Z"=fmodex64_orig.#208 @208
    "?getUserData@Sound@FMOD@@QEAA?AW4FMOD_RESULT@@PEAPEAX@Z"=fmodex64_orig.#209 @209
    "?getUserData@SoundGroup@FMOD@@QEAA?AW4FMOD_RESULT@@PEAPEAX@Z"=fmodex64_orig.#210 @210
    "?getUserData@System@FMOD@@QEAA?AW4FMOD_RESULT@@PEAPEAX@Z"=fmodex64_orig.#211 @211
    "?getUserDataInternal@SoundI@FMOD@@QEAA?AW4FMOD_RESULT@@PEAPEAX@Z"=fmodex64_orig.#212 @212
    "?getVariations@Sound@FMOD@@QEAA?AW4FMOD_RESULT@@PEAM00@Z"=fmodex64_orig.#213 @213
    "?getVersion@System@FMOD@@QEAA?AW4FMOD_RESULT@@PEAI@Z"=fmodex64_orig.#214 @214
    "?getVolume@Channel@FMOD@@QEAA?AW4FMOD_RESULT@@PEAM@Z"=fmodex64_orig.#215 @215
    "?getVolume@ChannelGroup@FMOD@@QEAA?AW4FMOD_RESULT@@PEAM@Z"=fmodex64_orig.#216 @216
    "?getVolume@SoundGroup@FMOD@@QEAA?AW4FMOD_RESULT@@PEAM@Z"=fmodex64_orig.#217 @217
    "?getWaveData@Channel@FMOD@@QEAA?AW4FMOD_RESULT@@PEAMHH@Z"=fmodex64_orig.#218 @218
    "?getWaveData@ChannelGroup@FMOD@@QEAA?AW4FMOD_RESULT@@PEAMHH@Z"=fmodex64_orig.#219 @219
    "?getWaveData@System@FMOD@@QEAA?AW4FMOD_RESULT@@PEAMHH@Z"=fmodex64_orig.#220 @220
    "?init@System@FMOD@@QEAA?AW4FMOD_RESULT@@HIPEAX@Z"=fmodex64_orig.#221 @221
    "?isPlaying@Channel@FMOD@@QEAA?AW4FMOD_RESULT@@PEA_N@Z"=fmodex64_orig.#222 @222
    "?isRecording@System@FMOD@@QEAA?AW4FMOD_RESULT@@HPEA_N@Z"=fmodex64_orig.#223 @223
    "?isVirtual@Channel@FMOD@@QEAA?AW4FMOD_RESULT@@PEA_N@Z"=fmodex64_orig.#224 @224
    "?loadGeometry@System@FMOD@@QEAA?AW4FMOD_RESULT@@PEBXHPEAPEAVGeometry@2@@Z"=fmodex64_orig.#225 @225
    "?loadPlugin@System@FMOD@@QEAA?AW4FMOD_RESULT@@PEBDPEAII@Z"=fmodex64_orig.#226 @226
    "?lock@Sound@FMOD@@QEAA?AW4FMOD_RESULT@@IIPEAPEAX0PEAI1@Z"=fmodex64_orig.#227 @227
    "?lockDSP@System@FMOD@@QEAA?AW4FMOD_RESULT@@XZ"=fmodex64_orig.#228 @228
    "?override3DAttributes@ChannelGroup@FMOD@@QEAA?AW4FMOD_RESULT@@PEBUFMOD_VECTOR@@0@Z"=fmodex64_orig.#229 @229
    "?overrideFrequency@ChannelGroup@FMOD@@QEAA?AW4FMOD_RESULT@@M@Z"=fmodex64_orig.#230 @230
    "?overridePan@ChannelGroup@FMOD@@QEAA?AW4FMOD_RESULT@@M@Z"=fmodex64_orig.#231 @231
    "?overrideReverbProperties@ChannelGroup@FMOD@@QEAA?AW4FMOD_RESULT@@PEBUFMOD_REVERB_CHANNELPROPERTIES@@@Z"=fmodex64_orig.#232 @232
    "?overrideSpeakerMix@ChannelGroup@FMOD@@QEAA?AW4FMOD_RESULT@@MMMMMMMM@Z"=fmodex64_orig.#233 @233
    "?overrideVolume@ChannelGroup@FMOD@@QEAA?AW4FMOD_RESULT@@M@Z"=fmodex64_orig.#234 @234
    "?playDSP@System@FMOD@@QEAA?AW4FMOD_RESULT@@W4FMOD_CHANNELINDEX@@PEAVDSP@2@_NPEAPEAVChannel@2@@Z"=fmodex64_orig.#235 @235
    "?playSound@System@FMOD@@QEAA?AW4FMOD_RESULT@@W4FMOD_CHANNELINDEX@@PEAVSound@2@_NPEAPEAVChannel@2@@Z"=playSound_detour @236
    "?readData@Sound@FMOD@@QEAA?AW4FMOD_RESULT@@PEAXIPEAI@Z"=fmodex64_orig.#237 @237
    "?recordStart@System@FMOD@@QEAA?AW4FMOD_RESULT@@HPEAVSound@2@_N@Z"=fmodex64_orig.#238 @238
    "?recordStop@System@FMOD@@QEAA?AW4FMOD_RESULT@@H@Z"=fmodex64_orig.#239 @239
    "?registerCodec@System@FMOD@@QEAA?AW4FMOD_RESULT@@PEAUFMOD_CODEC_DESCRIPTION@@PEAII@Z"=fmodex64_orig.#240 @240
    "?registerDSP@System@FMOD@@QEAA?AW4FMOD_RESULT@@PEAUFMOD_DSP_DESCRIPTION@@PEAI@Z"=fmodex64_orig.#241 @241
    "?release@ChannelGroup@FMOD@@QEAA?AW4FMOD_RESULT@@XZ"=fmodex64_orig.#242 @242
    "?release@DSP@FMOD@@QEAA?AW4FMOD_RESULT@@XZ"=fmodex64_orig.#243 @243
    "?release@Geometry@FMOD@@QEAA?AW4FMOD_RESULT@@XZ"=fmodex64_orig.#244 @244
    "?release@Reverb@FMOD@@QEAA?AW4FMOD_RESULT@@XZ"=fmodex64_orig.#245 @245
    "?release@Sound@FMOD@@QEAA?AW4FMOD_RESULT@@XZ"=fmodex64_orig.#246 @246
    "?release@SoundGroup@FMOD@@QEAA?AW4FMOD_RESULT@@XZ"=fmodex64_orig.#247 @247
    "?release@System@FMOD@@QEAA?AW4FMOD_RESULT@@XZ"=fmodex64_orig.#248 @248
    "?remove@DSP@FMOD@@QEAA?AW4FMOD_RESULT@@XZ"=fmodex64_orig.#249 @249
    "?removeCallback@AsyncThread@FMOD@@QEAA?AW4FMOD_RESULT@@P6A?AW43@H@Z@Z"=fmodex64_orig.#250 @250
    "?reset@DSP@FMOD@@QEAA?AW4FMOD_RESULT@@XZ"=fmodex64_orig.#251 @251
    "?save@Geometry@FMOD@@QEAA?AW4FMOD_RESULT@@PEAXPEAH@Z"=fmodex64_orig.#252 @252
    "?seekData@Sound@FMOD@@QEAA?AW4FMOD_RESULT@@I@Z"=fmodex64_orig.#253 @253
    "?set3DAttributes@Channel@FMOD@@QEAA?AW4FMOD_RESULT@@PEBUFMOD_VECTOR@@0@Z"=fmodex64_orig.#254 @254
    "?set3DAttributes@Reverb@FMOD@@QEAA?AW4FMOD_RESULT@@PEBUFMOD_VECTOR@@MM@Z"=fmodex64_orig.#255 @255
    "?set3DConeOrientation@Channel@FMOD@@QEAA?AW4FMOD_RESULT@@PEAUFMOD_VECTOR@@@Z"=fmodex64_orig.#256 @256
    "?set3DConeSettings@Channel@FMOD@@QEAA?AW4FMOD_RESULT@@MMM@Z"=fmodex64_orig.#257 @257
    "?set3DConeSettings@Sound@FMOD@@QEAA?AW4FMOD_RESULT@@MMM@Z"=fmodex64_orig.#258 @258
    "?set3DCustomRolloff@Channel@FMOD@@QEAA?AW4FMOD_RESULT@@PEAUFMOD_VECTOR@@H@Z"=fmodex64_orig.#259 @259
    "?set3DCustomRolloff@Sound@FMOD@@QEAA?AW4FMOD_RESULT@@PEAUFMOD_VECTOR@@H@Z"=fmodex64_orig.#260 @260
    "?set3DDistanceFilter@Channel@FMOD@@QEAA?AW4FMOD_RESULT@@_NMM@Z"=fmodex64_orig.#261 @261
    "?set3DDopplerLevel@Channel@FMOD@@QEAA?AW4FMOD_RESULT@@M@Z"=fmodex64_orig.#262 @262
    "?set3DListenerAttributes@System@FMOD@@QEAA?AW4FMOD_RESULT@@HPEBUFMOD_VECTOR@@000@Z"=fmodex64_orig.#263 @263
    "?set3DMinMaxDistance@Channel@FMOD@@QEAA?AW4FMOD_RESULT@@MM@Z"=fmodex64_orig.#264 @264
    "?set3DMinMaxDistance@Sound@FMOD@@QEAA?AW4FMOD_RESULT@@MM@Z"=fmodex64_orig.#265 @265
    "?set3DNumListeners@System@FMOD@@QEAA?AW4FMOD_RESULT@@H@Z"=fmodex64_orig.#266 @266
    "?set3DOcclusion@Channel@FMOD@@QEAA?AW4FMOD_RESULT@@MM@Z"=fmodex64_orig.#267 @267
    "?set3DOcclusion@ChannelGroup@FMOD@@QEAA?AW4FMOD_RESULT@@MM@Z"=fmodex64_orig.#268 @268
    "?set3DPanLevel@Channel@FMOD@@QEAA?AW4FMOD_RESULT@@M@Z"=fmodex64_orig.#269 @269
    "?set3DRolloffCallback@System@FMOD@@QEAA?AW4FMOD_RESULT@@P6AMPEAUFMOD_CHANNEL@@M@Z@Z"=fmodex64_orig.#270 @270
    "?set3DSettings@System@FMOD@@QEAA?AW4FMOD_RESULT@@MMM@Z"=fmodex64_orig.#271 @271
    "?set3DSpeakerPosition@System@FMOD@@QEAA?AW4FMOD_RESULT@@W4FMOD_SPEAKER@@MM_N@Z"=fmodex64_orig.#272 @272
    "?set3DSpread@Channel@FMOD@@QEAA?AW4FMOD_RESULT@@M@Z"=fmodex64_orig.#273 @273
    "?setActive@DSP@FMOD@@QEAA?AW4FMOD_RESULT@@_N@Z"=fmodex64_orig.#274 @274
    "?setActive@Geometry@FMOD@@QEAA?AW4FMOD_RESULT@@_N@Z"=fmodex64_orig.#275 @275
    "?setActive@Reverb@FMOD@@QEAA?AW4FMOD_RESULT@@_N@Z"=fmodex64_orig.#276 @276
    "?setAdvancedSettings@System@FMOD@@QEAA?AW4FMOD_RESULT@@PEAUFMOD_ADVANCEDSETTINGS@@@Z"=fmodex64_orig.#277 @277
    "?setBypass@DSP@FMOD@@QEAA?AW4FMOD_RESULT@@_N@Z"=fmodex64_orig.#278 @278
    "?setCallback@Channel@FMOD@@QEAA?AW4FMOD_RESULT@@P6A?AW43@PEAUFMOD_CHANNEL@@W4FMOD_CHANNEL_CALLBACKTYPE@@PEAX2@Z@Z"=fmodex64_orig.#279 @279
    "?setCallback@System@FMOD@@QEAA?AW4FMOD_RESULT@@P6A?AW43@PEAUFMOD_SYSTEM@@W4FMOD_SYSTEM_CALLBACKTYPE@@PEAX2@Z@Z"=fmodex64_orig.#280 @280
    "?setChannelGroup@Channel@FMOD@@QEAA?AW4FMOD_RESULT@@PEAVChannelGroup@2@@Z"=fmodex64_orig.#281 @281
    "?setDSPBufferSize@System@FMOD@@QEAA?AW4FMOD_RESULT@@IH@Z"=fmodex64_orig.#282 @282
    "?setDefaults@DSP@FMOD@@QEAA?AW4FMOD_RESULT@@MMMH@Z"=fmodex64_orig.#283 @283
    "?setDefaults@Sound@FMOD@@QEAA?AW4FMOD_RESULT@@MMMH@Z"=fmodex64_orig.#284 @284
    "?setDelay@Channel@FMOD@@QEAA?AW4FMOD_RESULT@@W4FMOD_DELAYTYPE@@II@Z"=fmodex64_orig.#285 @285
    "?setDriver@System@FMOD@@QEAA?AW4FMOD_RESULT@@H@Z"=fmodex64_orig.#286 @286
    "?setFileSystem@System@FMOD@@QEAA?AW4FMOD_RESULT@@P6A?AW43@PEBDHPEAIPEAPEAX2@ZP6A?AW43@PEAX4@ZP6A?AW43@44I14@ZP6A?AW43@4I4@ZP6A?AW43@PEAUFMOD_ASYNCREADINFO@@4@Z5H@Z"=fmodex64_orig.#287 @287
    "?setFrequency@Channel@FMOD@@QEAA?AW4FMOD_RESULT@@M@Z"=fmodex64_orig.#288 @288
    "?setGeometrySettings@System@FMOD@@QEAA?AW4FMOD_RESULT@@M@Z"=fmodex64_orig.#289 @289
    "?setHardwareChannels@System@FMOD@@QEAA?AW4FMOD_RESULT@@H@Z"=fmodex64_orig.#290 @290
    "?setInputChannelMix@Channel@FMOD@@QEAA?AW4FMOD_RESULT@@PEAMH@Z"=fmodex64_orig.#291 @291
    "?setLevels@DSPConnection@FMOD@@QEAA?AW4FMOD_RESULT@@W4FMOD_SPEAKER@@PEAMH@Z"=fmodex64_orig.#292 @292
    "?setLoopCount@Channel@FMOD@@QEAA?AW4FMOD_RESULT@@H@Z"=fmodex64_orig.#293 @293
    "?setLoopCount@Sound@FMOD@@QEAA?AW4FMOD_RESULT@@H@Z"=fmodex64_orig.#294 @294
    "?setLoopPoints@Channel@FMOD@@QEAA?AW4FMOD_RESULT@@IIII@Z"=fmodex64_orig.#295 @295
    "?setLoopPoints@Sound@FMOD@@QEAA?AW4FMOD_RESULT@@IIII@Z"=fmodex64_orig.#296 @296
    "?setLowPassGain@Channel@FMOD@@QEAA?AW4FMOD_RESULT@@M@Z"=fmodex64_orig.#297 @297
    "?setMaxAudible@SoundGroup@FMOD@@QEAA?AW4FMOD_RESULT@@H@Z"=fmodex64_orig.#298 @298
    "?setMaxAudibleBehavior@SoundGroup@FMOD@@QEAA?AW4FMOD_RESULT@@W4FMOD_SOUNDGROUP_BEHAVIOR@@@Z"=fmodex64_orig.#299 @299
    "?setMix@DSPConnection@FMOD@@QEAA?AW4FMOD_RESULT@@M@Z"=fmodex64_orig.#300 @300
    "?setMode@Channel@FMOD@@QEAA?AW4FMOD_RESULT@@I@Z"=fmodex64_orig.#301 @301
    "?setMode@Sound@FMOD@@QEAA?AW4FMOD_RESULT@@I@Z"=fmodex64_orig.#302 @302
    "?setMusicChannelVolume@Sound@FMOD@@QEAA?AW4FMOD_RESULT@@HM@Z"=fmodex64_orig.#303 @303
    "?setMusicSpeed@Sound@FMOD@@QEAA?AW4FMOD_RESULT@@M@Z"=fmodex64_orig.#304 @304
    "?setMute@Channel@FMOD@@QEAA?AW4FMOD_RESULT@@_N@Z"=fmodex64_orig.#305 @305
    "?setMute@ChannelGroup@FMOD@@QEAA?AW4FMOD_RESULT@@_N@Z"=fmodex64_orig.#306 @306
    "?setMuteFadeSpeed@SoundGroup@FMOD@@QEAA?AW4FMOD_RESULT@@M@Z"=fmodex64_orig.#307 @307
    "?setNetworkProxy@System@FMOD@@QEAA?AW4FMOD_RESULT@@PEBD@Z"=fmodex64_orig.#308 @308
    "?setNetworkTimeout@System@FMOD@@QEAA?AW4FMOD_RESULT@@H@Z"=fmodex64_orig.#309 @309
    "?setOutput@System@FMOD@@QEAA?AW4FMOD_RESULT@@W4FMOD_OUTPUTTYPE@@@Z"=fmodex64_orig.#310 @310
    "?setOutputByPlugin@System@FMOD@@QEAA?AW4FMOD_RESULT@@I@Z"=fmodex64_orig.#311 @311
    "?setPan@Channel@FMOD@@QEAA?AW4FMOD_RESULT@@M@Z"=fmodex64_orig.#312 @312
    "?setParameter@DSP@FMOD@@QEAA?AW4FMOD_RESULT@@HM@Z"=fmodex64_orig.#313 @313
    "?setPaused@Channel@FMOD@@QEAA?AW4FMOD_RESULT@@_N@Z"=fmodex64_orig.#314 @314
    "?setPaused@ChannelGroup@FMOD@@QEAA?AW4FMOD_RESULT@@_N@Z"=fmodex64_orig.#315 @315
    "?setPitch@ChannelGroup@FMOD@@QEAA?AW4FMOD_RESULT@@M@Z"=fmodex64_orig.#316 @316
    "?setPluginPath@System@FMOD@@QEAA?AW4FMOD_RESULT@@PEBD@Z"=fmodex64_orig.#317 @317
    "?setPolygonAttributes@Geometry@FMOD@@QEAA?AW4FMOD_RESULT@@HMM_N@Z"=fmodex64_orig.#318 @318
    "?setPolygonVertex@Geometry@FMOD@@QEAA?AW4FMOD_RESULT@@HHPEBUFMOD_VECTOR@@@Z"=fmodex64_orig.#319 @319
    "?setPosition@Channel@FMOD@@QEAA?AW4FMOD_RESULT@@II@Z"=fmodex64_orig.#320 @320
    "?setPosition@Geometry@FMOD@@QEAA?AW4FMOD_RESULT@@PEBUFMOD_VECTOR@@@Z"=fmodex64_orig.#321 @321
    "?setPriority@Channel@FMOD@@QEAA?AW4FMOD_RESULT@@H@Z"=fmodex64_orig.#322 @322
    "?setProperties@Reverb@FMOD@@QEAA?AW4FMOD_RESULT@@PEBUFMOD_REVERB_PROPERTIES@@@Z"=fmodex64_orig.#323 @323
    "?setReverbAmbientProperties@System@FMOD@@QEAA?AW4FMOD_RESULT@@PEAUFMOD_REVERB_PROPERTIES@@@Z"=fmodex64_orig.#324 @324
    "?setReverbProperties@Channel@FMOD@@QEAA?AW4FMOD_RESULT@@PEBUFMOD_REVERB_CHANNELPROPERTIES@@@Z"=fmodex64_orig.#325 @325
    "?setReverbProperties@System@FMOD@@QEAA?AW4FMOD_RESULT@@PEBUFMOD_REVERB_PROPERTIES@@@Z"=fmodex64_orig.#326 @326
    "?setRotation@Geometry@FMOD@@QEAA?AW4FMOD_RESULT@@PEBUFMOD_VECTOR@@0@Z"=fmodex64_orig.#327 @327
    "?setScale@Geometry@FMOD@@QEAA?AW4FMOD_RESULT@@PEBUFMOD_VECTOR@@@Z"=fmodex64_orig.#328 @328
    "?setSoftwareChannels@System@FMOD@@QEAA?AW4FMOD_RESULT@@H@Z"=fmodex64_orig.#329 @329
    "?setSoftwareFormat@System@FMOD@@QEAA?AW4FMOD_RESULT@@HW4FMOD_SOUND_FORMAT@@HHW4FMOD_DSP_RESAMPLER@@@Z"=fmodex64_orig.#330 @330
    "?setSoundGroup@Sound@FMOD@@QEAA?AW4FMOD_RESULT@@PEAVSoundGroup@2@@Z"=fmodex64_orig.#331 @331
    "?setSpeakerActive@DSP@FMOD@@QEAA?AW4FMOD_RESULT@@W4FMOD_SPEAKER@@_N@Z"=fmodex64_orig.#332 @332
    "?setSpeakerLevels@Channel@FMOD@@QEAA?AW4FMOD_RESULT@@W4FMOD_SPEAKER@@PEAMH@Z"=fmodex64_orig.#333 @333
    "?setSpeakerMix@Channel@FMOD@@QEAA?AW4FMOD_RESULT@@MMMMMMMM@Z"=fmodex64_orig.#334 @334
    "?setSpeakerMode@System@FMOD@@QEAA?AW4FMOD_RESULT@@W4FMOD_SPEAKERMODE@@@Z"=fmodex64_orig.#335 @335
    "?setStreamBufferSize@System@FMOD@@QEAA?AW4FMOD_RESULT@@II@Z"=fmodex64_orig.#336 @336
    "?setSubSound@Sound@FMOD@@QEAA?AW4FMOD_RESULT@@HPEAV12@@Z"=fmodex64_orig.#337 @337
    "?setSubSoundSentence@Sound@FMOD@@QEAA?AW4FMOD_RESULT@@PEAHH@Z"=fmodex64_orig.#338 @338
    "?setUserData@Channel@FMOD@@QEAA?AW4FMOD_RESULT@@PEAX@Z"=fmodex64_orig.#339 @339
    "?setUserData@ChannelGroup@FMOD@@QEAA?AW4FMOD_RESULT@@PEAX@Z"=fmodex64_orig.#340 @340
    "?setUserData@DSP@FMOD@@QEAA?AW4FMOD_RESULT@@PEAX@Z"=fmodex64_orig.#341 @341
    "?setUserData@DSPConnection@FMOD@@QEAA?AW4FMOD_RESULT@@PEAX@Z"=fmodex64_orig.#342 @342
    "?setUserData@Geometry@FMOD@@QEAA?AW4FMOD_RESULT@@PEAX@Z"=fmodex64_orig.#343 @343
    "?setUserData@GeometryI@FMOD@@QEAA?AW4FMOD_RESULT@@PEAX@Z"=fmodex64_orig.#344 @344
    "?setUserData@Reverb@FMOD@@QEAA?AW4FMOD_RESULT@@PEAX@Z"=fmodex64_orig.#345 @345
    "?setUserData@Sound@FMOD@@QEAA?AW4FMOD_RESULT@@PEAX@Z"=fmodex64_orig.#346 @346
    "?setUserData@SoundGroup@FMOD@@QEAA?AW4FMOD_RESULT@@PEAX@Z"=fmodex64_orig.#347 @347
    "?setUserData@System@FMOD@@QEAA?AW4FMOD_RESULT@@PEAX@Z"=fmodex64_orig.#348 @348
    "?setUserDataInternal@SoundI@FMOD@@QEAA?AW4FMOD_RESULT@@PEAX@Z"=fmodex64_orig.#349 @349
    "?setVariations@Sound@FMOD@@QEAA?AW4FMOD_RESULT@@MMM@Z"=fmodex64_orig.#350 @350
    "?setVolume@Channel@FMOD@@QEAA?AW4FMOD_RESULT@@M@Z"=fmodex64_orig.#351 @351
    "?setVolume@ChannelGroup@FMOD@@QEAA?AW4FMOD_RESULT@@M@Z"=fmodex64_orig.#352 @352
    "?setVolume@SoundGroup@FMOD@@QEAA?AW4FMOD_RESULT@@M@Z"=fmodex64_orig.#353 @353
    "?showConfigDialog@DSP@FMOD@@QEAA?AW4FMOD_RESULT@@PEAX_N@Z"=fmodex64_orig.#354 @354
    "?stop@Channel@FMOD@@QEAA?AW4FMOD_RESULT@@XZ"=fmodex64_orig.#355 @355
    "?stop@ChannelGroup@FMOD@@QEAA?AW4FMOD_RESULT@@XZ"=fmodex64_orig.#356 @356
    "?stop@SoundGroup@FMOD@@QEAA?AW4FMOD_RESULT@@XZ"=fmodex64_orig.#357 @357
    "?unloadPlugin@System@FMOD@@QEAA?AW4FMOD_RESULT@@I@Z"=fmodex64_orig.#358 @358
    "?unlock@Sound@FMOD@@QEAA?AW4FMOD_RESULT@@PEAX0II@Z"=fmodex64_orig.#359 @359
    "?unlockDSP@System@FMOD@@QEAA?AW4FMOD_RESULT@@XZ"=fmodex64_orig.#360 @360
    "?update@System@FMOD@@QEAA?AW4FMOD_RESULT@@XZ"=fmodex64_orig.#361 @361
    "?validate@ChannelI@FMOD@@SA?AW4FMOD_RESULT@@PEAVChannel@2@PEAPEAV12@@Z"=fmodex64_orig.#362 @362
    "?wakeupThread@AsyncThread@FMOD@@QEAA?AW4FMOD_RESULT@@XZ"=fmodex64_orig.#363 @363
    "FMOD_ChannelGroup_AddDSP"=fmodex64_orig.#364 @364
    "FMOD_ChannelGroup_AddGroup"=fmodex64_orig.#365 @365
    "FMOD_ChannelGroup_Get3DOcclusion"=fmodex64_orig.#366 @366
    "FMOD_ChannelGroup_GetChannel"=fmodex64_orig.#367 @367
    "FMOD_ChannelGroup_GetDSPHead"=fmodex64_orig.#368 @368
    "FMOD_ChannelGroup_GetGroup"=fmodex64_orig.#369 @369
    "FMOD_ChannelGroup_GetMemoryInfo"=fmodex64_orig.#370 @370
    "FMOD_ChannelGroup_GetMute"=fmodex64_orig.#371 @371
    "FMOD_ChannelGroup_GetName"=fmodex64_orig.#372 @372
    "FMOD_ChannelGroup_GetNumChannels"=fmodex64_orig.#373 @373
    "FMOD_ChannelGroup_GetNumGroups"=fmodex64_orig.#374 @374
    "FMOD_ChannelGroup_GetParentGroup"=fmodex64_orig.#375 @375
    "FMOD_ChannelGroup_GetPaused"=fmodex64_orig.#376 @376
    "FMOD_ChannelGroup_GetPitch"=fmodex64_orig.#377 @377
    "FMOD_ChannelGroup_GetSpectrum"=fmodex64_orig.#378 @378
    "FMOD_ChannelGroup_GetSystemObject"=fmodex64_orig.#379 @379
    "FMOD_ChannelGroup_GetUserData"=fmodex64_orig.#380 @380
    "FMOD_ChannelGroup_GetVolume"=fmodex64_orig.#381 @381
    "FMOD_ChannelGroup_GetWaveData"=fmodex64_orig.#382 @382
    "FMOD_ChannelGroup_Override3DAttributes"=fmodex64_orig.#383 @383
    "FMOD_ChannelGroup_OverrideFrequency"=fmodex64_orig.#384 @384
    "FMOD_ChannelGroup_OverridePan"=fmodex64_orig.#385 @385
    "FMOD_ChannelGroup_OverrideReverbProperties"=fmodex64_orig.#386 @386
    "FMOD_ChannelGroup_OverrideSpeakerMix"=fmodex64_orig.#387 @387
    "FMOD_ChannelGroup_OverrideVolume"=fmodex64_orig.#388 @388
    "FMOD_ChannelGroup_Release"=fmodex64_orig.#389 @389
    "FMOD_ChannelGroup_Set3DOcclusion"=fmodex64_orig.#390 @390
    "FMOD_ChannelGroup_SetMute"=fmodex64_orig.#391 @391
    "FMOD_ChannelGroup_SetPaused"=fmodex64_orig.#392 @392
    "FMOD_ChannelGroup_SetPitch"=fmodex64_orig.#393 @393
    "FMOD_ChannelGroup_SetUserData"=fmodex64_orig.#394 @394
    "FMOD_ChannelGroup_SetVolume"=fmodex64_orig.#395 @395
    "FMOD_ChannelGroup_Stop"=fmodex64_orig.#396 @396
    "FMOD_Channel_AddDSP"=fmodex64_orig.#397 @397
    "FMOD_Channel_Get3DAttributes"=fmodex64_orig.#398 @398
    "FMOD_Channel_Get3DConeOrientation"=fmodex64_orig.#399 @399
    "FMOD_Channel_Get3DConeSettings"=fmodex64_orig.#400 @400
    "FMOD_Channel_Get3DCustomRolloff"=fmodex64_orig.#401 @401
    "FMOD_Channel_Get3DDistanceFilter"=fmodex64_orig.#402 @402
    "FMOD_Channel_Get3DDopplerLevel"=fmodex64_orig.#403 @403
    "FMOD_Channel_Get3DMinMaxDistance"=fmodex64_orig.#404 @404
    "FMOD_Channel_Get3DOcclusion"=fmodex64_orig.#405 @405
    "FMOD_Channel_Get3DPanLevel"=fmodex64_orig.#406 @406
    "FMOD_Channel_Get3DSpread"=fmodex64_orig.#407 @407
    "FMOD_Channel_GetAudibility"=fmodex64_orig.#408 @408
    "FMOD_Channel_GetChannelGroup"=fmodex64_orig.#409 @409
    "FMOD_Channel_GetCurrentSound"=fmodex64_orig.#410 @410
    "FMOD_Channel_GetDSPHead"=fmodex64_orig.#411 @411
    "FMOD_Channel_GetDelay"=fmodex64_orig.#412 @412
    "FMOD_Channel_GetFrequency"=fmodex64_orig.#413 @413
    "FMOD_Channel_GetIndex"=fmodex64_orig.#414 @414
    "FMOD_Channel_GetInputChannelMix"=fmodex64_orig.#415 @415
    "FMOD_Channel_GetLoopCount"=fmodex64_orig.#416 @416
    "FMOD_Channel_GetLoopPoints"=fmodex64_orig.#417 @417
    "FMOD_Channel_GetLowPassGain"=fmodex64_orig.#418 @418
    "FMOD_Channel_GetMemoryInfo"=fmodex64_orig.#419 @419
    "FMOD_Channel_GetMode"=fmodex64_orig.#420 @420
    "FMOD_Channel_GetMute"=fmodex64_orig.#421 @421
    "FMOD_Channel_GetPan"=fmodex64_orig.#422 @422
    "FMOD_Channel_GetPaused"=fmodex64_orig.#423 @423
    "FMOD_Channel_GetPosition"=fmodex64_orig.#424 @424
    "FMOD_Channel_GetPriority"=fmodex64_orig.#425 @425
    "FMOD_Channel_GetReverbProperties"=fmodex64_orig.#426 @426
    "FMOD_Channel_GetSpeakerLevels"=fmodex64_orig.#427 @427
    "FMOD_Channel_GetSpeakerMix"=fmodex64_orig.#428 @428
    "FMOD_Channel_GetSpectrum"=fmodex64_orig.#429 @429
    "FMOD_Channel_GetSystemObject"=fmodex64_orig.#430 @430
    "FMOD_Channel_GetUserData"=fmodex64_orig.#431 @431
    "FMOD_Channel_GetVolume"=fmodex64_orig.#432 @432
    "FMOD_Channel_GetWaveData"=fmodex64_orig.#433 @433
    "FMOD_Channel_IsPlaying"=fmodex64_orig.#434 @434
    "FMOD_Channel_IsVirtual"=fmodex64_orig.#435 @435
    "FMOD_Channel_Set3DAttributes"=fmodex64_orig.#436 @436
    "FMOD_Channel_Set3DConeOrientation"=fmodex64_orig.#437 @437
    "FMOD_Channel_Set3DConeSettings"=fmodex64_orig.#438 @438
    "FMOD_Channel_Set3DCustomRolloff"=fmodex64_orig.#439 @439
    "FMOD_Channel_Set3DDistanceFilter"=fmodex64_orig.#440 @440
    "FMOD_Channel_Set3DDopplerLevel"=fmodex64_orig.#441 @441
    "FMOD_Channel_Set3DMinMaxDistance"=fmodex64_orig.#442 @442
    "FMOD_Channel_Set3DOcclusion"=fmodex64_orig.#443 @443
    "FMOD_Channel_Set3DPanLevel"=fmodex64_orig.#444 @444
    "FMOD_Channel_Set3DSpread"=fmodex64_orig.#445 @445
    "FMOD_Channel_SetCallback"=fmodex64_orig.#446 @446
    "FMOD_Channel_SetChannelGroup"=fmodex64_orig.#447 @447
    "FMOD_Channel_SetDelay"=fmodex64_orig.#448 @448
    "FMOD_Channel_SetFrequency"=fmodex64_orig.#449 @449
    "FMOD_Channel_SetInputChannelMix"=fmodex64_orig.#450 @450
    "FMOD_Channel_SetLoopCount"=fmodex64_orig.#451 @451
    "FMOD_Channel_SetLoopPoints"=fmodex64_orig.#452 @452
    "FMOD_Channel_SetLowPassGain"=fmodex64_orig.#453 @453
    "FMOD_Channel_SetMode"=fmodex64_orig.#454 @454
    "FMOD_Channel_SetMute"=fmodex64_orig.#455 @455
    "FMOD_Channel_SetPan"=fmodex64_orig.#456 @456
    "FMOD_Channel_SetPaused"=fmodex64_orig.#457 @457
    "FMOD_Channel_SetPosition"=fmodex64_orig.#458 @458
    "FMOD_Channel_SetPriority"=fmodex64_orig.#459 @459
    "FMOD_Channel_SetReverbProperties"=fmodex64_orig.#460 @460
    "FMOD_Channel_SetSpeakerLevels"=fmodex64_orig.#461 @461
    "FMOD_Channel_SetSpeakerMix"=fmodex64_orig.#462 @462
    "FMOD_Channel_SetUserData"=fmodex64_orig.#463 @463
    "FMOD_Channel_SetVolume"=fmodex64_orig.#464 @464
    "FMOD_Channel_Stop"=fmodex64_orig.#465 @465
    "FMOD_DSPConnection_GetInput"=fmodex64_orig.#466 @466
    "FMOD_DSPConnection_GetLevels"=fmodex64_orig.#467 @467
    "FMOD_DSPConnection_GetMemoryInfo"=fmodex64_orig.#468 @468
    "FMOD_DSPConnection_GetMix"=fmodex64_orig.#469 @469
    "FMOD_DSPConnection_GetOutput"=fmodex64_orig.#470 @470
    "FMOD_DSPConnection_GetUserData"=fmodex64_orig.#471 @471
    "FMOD_DSPConnection_SetLevels"=fmodex64_orig.#472 @472
    "FMOD_DSPConnection_SetMix"=fmodex64_orig.#473 @473
    "FMOD_DSPConnection_SetUserData"=fmodex64_orig.#474 @474
    "FMOD_DSP_AddInput"=fmodex64_orig.#475 @475
    "FMOD_DSP_DisconnectAll"=fmodex64_orig.#476 @476
    "FMOD_DSP_DisconnectFrom"=fmodex64_orig.#477 @477
    "FMOD_DSP_GetActive"=fmodex64_orig.#478 @478
    "FMOD_DSP_GetBypass"=fmodex64_orig.#479 @479
    "FMOD_DSP_GetDefaults"=fmodex64_orig.#480 @480
    "FMOD_DSP_GetInfo"=fmodex64_orig.#481 @481
    "FMOD_DSP_GetInput"=fmodex64_orig.#482 @482
    "FMOD_DSP_GetMemoryInfo"=fmodex64_orig.#483 @483
    "FMOD_DSP_GetNumInputs"=fmodex64_orig.#484 @484
    "FMOD_DSP_GetNumOutputs"=fmodex64_orig.#485 @485
    "FMOD_DSP_GetNumParameters"=fmodex64_orig.#486 @486
    "FMOD_DSP_GetOutput"=fmodex64_orig.#487 @487
    "FMOD_DSP_GetParameter"=fmodex64_orig.#488 @488
    "FMOD_DSP_GetParameterInfo"=fmodex64_orig.#489 @489
    "FMOD_DSP_GetSpeakerActive"=fmodex64_orig.#490 @490
    "FMOD_DSP_GetSystemObject"=fmodex64_orig.#491 @491
    "FMOD_DSP_GetType"=fmodex64_orig.#492 @492
    "FMOD_DSP_GetUserData"=fmodex64_orig.#493 @493
    "FMOD_DSP_Release"=fmodex64_orig.#494 @494
    "FMOD_DSP_Remove"=fmodex64_orig.#495 @495
    "FMOD_DSP_Reset"=fmodex64_orig.#496 @496
    "FMOD_DSP_SetActive"=fmodex64_orig.#497 @497
    "FMOD_DSP_SetBypass"=fmodex64_orig.#498 @498
    "FMOD_DSP_SetDefaults"=fmodex64_orig.#499 @499
    "FMOD_DSP_SetParameter"=fmodex64_orig.#500 @500
    "FMOD_DSP_SetSpeakerActive"=fmodex64_orig.#501 @501
    "FMOD_DSP_SetUserData"=fmodex64_orig.#502 @502
    "FMOD_DSP_ShowConfigDialog"=fmodex64_orig.#503 @503
    "FMOD_Debug_GetLevel"=fmodex64_orig.#504 @504
    "FMOD_Debug_GetMode"=fmodex64_orig.#505 @505
    "FMOD_Debug_SetLevel"=fmodex64_orig.#506 @506
    "FMOD_Debug_SetMode"=fmodex64_orig.#507 @507
    "FMOD_File_GetDiskBusy"=fmodex64_orig.#508 @508
    "FMOD_File_SetDiskBusy"=fmodex64_orig.#509 @509
    "FMOD_Geometry_AddPolygon"=fmodex64_orig.#510 @510
    "FMOD_Geometry_GetActive"=fmodex64_orig.#511 @511
    "FMOD_Geometry_GetMaxPolygons"=fmodex64_orig.#512 @512
    "FMOD_Geometry_GetMemoryInfo"=fmodex64_orig.#513 @513
    "FMOD_Geometry_GetNumPolygons"=fmodex64_orig.#514 @514
    "FMOD_Geometry_GetPolygonAttributes"=fmodex64_orig.#515 @515
    "FMOD_Geometry_GetPolygonNumVertices"=fmodex64_orig.#516 @516
    "FMOD_Geometry_GetPolygonVertex"=fmodex64_orig.#517 @517
    "FMOD_Geometry_GetPosition"=fmodex64_orig.#518 @518
    "FMOD_Geometry_GetRotation"=fmodex64_orig.#519 @519
    "FMOD_Geometry_GetScale"=fmodex64_orig.#520 @520
    "FMOD_Geometry_GetUserData"=fmodex64_orig.#521 @521
    "FMOD_Geometry_Release"=fmodex64_orig.#522 @522
    "FMOD_Geometry_Save"=fmodex64_orig.#523 @523
    "FMOD_Geometry_SetActive"=fmodex64_orig.#524 @524
    "FMOD_Geometry_SetPolygonAttributes"=fmodex64_orig.#525 @525
    "FMOD_Geometry_SetPolygonVertex"=fmodex64_orig.#526 @526
    "FMOD_Geometry_SetPosition"=fmodex64_orig.#527 @527
    "FMOD_Geometry_SetRotation"=fmodex64_orig.#528 @528
    "FMOD_Geometry_SetScale"=fmodex64_orig.#529 @529
    "FMOD_Geometry_SetUserData"=fmodex64_orig.#530 @530
    "FMOD_Memory_GetStats"=fmodex64_orig.#531 @531
    "FMOD_Memory_Initialize"=fmodex64_orig.#532 @532
    "FMOD_MyEars_GetError"=fmodex64_orig.#533 @533
    "FMOD_Reverb_Get3DAttributes"=fmodex64_orig.#534 @534
    "FMOD_Reverb_GetActive"=fmodex64_orig.#535 @535
    "FMOD_Reverb_GetMemoryInfo"=fmodex64_orig.#536 @536
    "FMOD_Reverb_GetProperties"=fmodex64_orig.#537 @537
    "FMOD_Reverb_GetUserData"=fmodex64_orig.#538 @538
    "FMOD_Reverb_Release"=fmodex64_orig.#539 @539
    "FMOD_Reverb_Set3DAttributes"=fmodex64_orig.#540 @540
    "FMOD_Reverb_SetActive"=fmodex64_orig.#541 @541
    "FMOD_Reverb_SetProperties"=fmodex64_orig.#542 @542
    "FMOD_Reverb_SetUserData"=fmodex64_orig.#543 @543
    "FMOD_SoundGroup_GetMaxAudible"=fmodex64_orig.#544 @544
    "FMOD_SoundGroup_GetMaxAudibleBehavior"=fmodex64_orig.#545 @545
    "FMOD_SoundGroup_GetMemoryInfo"=fmodex64_orig.#546 @546
    "FMOD_SoundGroup_GetMuteFadeSpeed"=fmodex64_orig.#547 @547
    "FMOD_SoundGroup_GetName"=fmodex64_orig.#548 @548
    "FMOD_SoundGroup_GetNumPlaying"=fmodex64_orig.#549 @549
    "FMOD_SoundGroup_GetNumSounds"=fmodex64_orig.#550 @550
    "FMOD_SoundGroup_GetSound"=fmodex64_orig.#551 @551
    "FMOD_SoundGroup_GetSystemObject"=fmodex64_orig.#552 @552
    "FMOD_SoundGroup_GetUserData"=fmodex64_orig.#553 @553
    "FMOD_SoundGroup_GetVolume"=fmodex64_orig.#554 @554
    "FMOD_SoundGroup_Release"=fmodex64_orig.#555 @555
    "FMOD_SoundGroup_SetMaxAudible"=fmodex64_orig.#556 @556
    "FMOD_SoundGroup_SetMaxAudibleBehavior"=fmodex64_orig.#557 @557
    "FMOD_SoundGroup_SetMuteFadeSpeed"=fmodex64_orig.#558 @558
    "FMOD_SoundGroup_SetUserData"=fmodex64_orig.#559 @559
    "FMOD_SoundGroup_SetVolume"=fmodex64_orig.#560 @560
    "FMOD_SoundGroup_Stop"=fmodex64_orig.#561 @561
    "FMOD_Sound_AddSyncPoint"=fmodex64_orig.#562 @562
    "FMOD_Sound_DeleteSyncPoint"=fmodex64_orig.#563 @563
    "FMOD_Sound_Get3DConeSettings"=fmodex64_orig.#564 @564
    "FMOD_Sound_Get3DCustomRolloff"=fmodex64_orig.#565 @565
    "FMOD_Sound_Get3DMinMaxDistance"=fmodex64_orig.#566 @566
    "FMOD_Sound_GetDefaults"=fmodex64_orig.#567 @567
    "FMOD_Sound_GetFormat"=fmodex64_orig.#568 @568
    "FMOD_Sound_GetLength"=fmodex64_orig.#569 @569
    "FMOD_Sound_GetLoopCount"=fmodex64_orig.#570 @570
    "FMOD_Sound_GetLoopPoints"=fmodex64_orig.#571 @571
    "FMOD_Sound_GetMemoryInfo"=fmodex64_orig.#572 @572
    "FMOD_Sound_GetMode"=fmodex64_orig.#573 @573
    "FMOD_Sound_GetMusicChannelVolume"=fmodex64_orig.#574 @574
    "FMOD_Sound_GetMusicNumChannels"=fmodex64_orig.#575 @575
    "FMOD_Sound_GetMusicSpeed"=fmodex64_orig.#576 @576
    "FMOD_Sound_GetName"=fmodex64_orig.#577 @577
    "FMOD_Sound_GetNumSubSounds"=fmodex64_orig.#578 @578
    "FMOD_Sound_GetNumSyncPoints"=fmodex64_orig.#579 @579
    "FMOD_Sound_GetNumTags"=fmodex64_orig.#580 @580
    "FMOD_Sound_GetOpenState"=fmodex64_orig.#581 @581
    "FMOD_Sound_GetSoundGroup"=fmodex64_orig.#582 @582
    "FMOD_Sound_GetSubSound"=fmodex64_orig.#583 @583
    "FMOD_Sound_GetSubSoundParent"=fmodex64_orig.#584 @584
    "FMOD_Sound_GetSyncPoint"=fmodex64_orig.#585 @585
    "FMOD_Sound_GetSyncPointInfo"=fmodex64_orig.#586 @586
    "FMOD_Sound_GetSystemObject"=fmodex64_orig.#587 @587
    "FMOD_Sound_GetTag"=fmodex64_orig.#588 @588
    "FMOD_Sound_GetUserData"=fmodex64_orig.#589 @589
    "FMOD_Sound_GetVariations"=fmodex64_orig.#590 @590
    "FMOD_Sound_Lock"=fmodex64_orig.#591 @591
    "FMOD_Sound_ReadData"=fmodex64_orig.#592 @592
    "FMOD_Sound_Release"=fmodex64_orig.#593 @593
    "FMOD_Sound_SeekData"=fmodex64_orig.#594 @594
    "FMOD_Sound_Set3DConeSettings"=fmodex64_orig.#595 @595
    "FMOD_Sound_Set3DCustomRolloff"=fmodex64_orig.#596 @596
    "FMOD_Sound_Set3DMinMaxDistance"=fmodex64_orig.#597 @597
    "FMOD_Sound_SetDefaults"=fmodex64_orig.#598 @598
    "FMOD_Sound_SetLoopCount"=fmodex64_orig.#599 @599
    "FMOD_Sound_SetLoopPoints"=fmodex64_orig.#600 @600
    "FMOD_Sound_SetMode"=fmodex64_orig.#601 @601
    "FMOD_Sound_SetMusicChannelVolume"=fmodex64_orig.#602 @602
    "FMOD_Sound_SetMusicSpeed"=fmodex64_orig.#603 @603
    "FMOD_Sound_SetSoundGroup"=fmodex64_orig.#604 @604
    "FMOD_Sound_SetSubSound"=fmodex64_orig.#605 @605
    "FMOD_Sound_SetSubSoundSentence"=fmodex64_orig.#606 @606
    "FMOD_Sound_SetUserData"=fmodex64_orig.#607 @607
    "FMOD_Sound_SetVariations"=fmodex64_orig.#608 @608
    "FMOD_Sound_Unlock"=fmodex64_orig.#609 @609
    "FMOD_System_AddDSP"=fmodex64_orig.#610 @610
    "FMOD_System_AttachFileSystem"=fmodex64_orig.#611 @611
    "FMOD_System_Close"=fmodex64_orig.#612 @612
    "FMOD_System_Create"=fmodex64_orig.#613 @613
    "FMOD_System_CreateChannelGroup"=fmodex64_orig.#614 @614
    "FMOD_System_CreateDSP"=fmodex64_orig.#615 @615
    "FMOD_System_CreateDSPByPlugin"=fmodex64_orig.#616 @616
    "FMOD_System_CreateDSPByType"=fmodex64_orig.#617 @617
    "FMOD_System_CreateGeometry"=fmodex64_orig.#618 @618
    "FMOD_System_CreateReverb"=fmodex64_orig.#619 @619
    "FMOD_System_CreateSound"=fmodex64_orig.#620 @620
    "FMOD_System_CreateSoundGroup"=fmodex64_orig.#621 @621
    "FMOD_System_CreateStream"=fmodex64_orig.#622 @622
    "FMOD_System_Get3DListenerAttributes"=fmodex64_orig.#623 @623
    "FMOD_System_Get3DNumListeners"=fmodex64_orig.#624 @624
    "FMOD_System_Get3DSettings"=fmodex64_orig.#625 @625
    "FMOD_System_Get3DSpeakerPosition"=fmodex64_orig.#626 @626
    "FMOD_System_GetAdvancedSettings"=fmodex64_orig.#627 @627
    "FMOD_System_GetCDROMDriveName"=fmodex64_orig.#628 @628
    "FMOD_System_GetCPUUsage"=fmodex64_orig.#629 @629
    "FMOD_System_GetChannel"=fmodex64_orig.#630 @630
    "FMOD_System_GetChannelsPlaying"=fmodex64_orig.#631 @631
    "FMOD_System_GetDSPBufferSize"=fmodex64_orig.#632 @632
    "FMOD_System_GetDSPClock"=fmodex64_orig.#633 @633
    "FMOD_System_GetDSPHead"=fmodex64_orig.#634 @634
    "FMOD_System_GetDriver"=fmodex64_orig.#635 @635
    "FMOD_System_GetDriverCaps"=fmodex64_orig.#636 @636
    "FMOD_System_GetDriverInfo"=fmodex64_orig.#637 @637
    "FMOD_System_GetDriverInfoW"=fmodex64_orig.#638 @638
    "FMOD_System_GetGeometryOcclusion"=fmodex64_orig.#639 @639
    "FMOD_System_GetGeometrySettings"=fmodex64_orig.#640 @640
    "FMOD_System_GetHardwareChannels"=fmodex64_orig.#641 @641
    "FMOD_System_GetMasterChannelGroup"=fmodex64_orig.#642 @642
    "FMOD_System_GetMasterSoundGroup"=fmodex64_orig.#643 @643
    "FMOD_System_GetMemoryInfo"=fmodex64_orig.#644 @644
    "FMOD_System_GetNetworkProxy"=fmodex64_orig.#645 @645
    "FMOD_System_GetNetworkTimeout"=fmodex64_orig.#646 @646
    "FMOD_System_GetNumCDROMDrives"=fmodex64_orig.#647 @647
    "FMOD_System_GetNumDrivers"=fmodex64_orig.#648 @648
    "FMOD_System_GetNumPlugins"=fmodex64_orig.#649 @649
    "FMOD_System_GetOutput"=fmodex64_orig.#650 @650
    "FMOD_System_GetOutputByPlugin"=fmodex64_orig.#651 @651
    "FMOD_System_GetOutputHandle"=fmodex64_orig.#652 @652
    "FMOD_System_GetPluginHandle"=fmodex64_orig.#653 @653
    "FMOD_System_GetPluginInfo"=fmodex64_orig.#654 @654
    "FMOD_System_GetRecordDriverCaps"=fmodex64_orig.#655 @655
    "FMOD_System_GetRecordDriverInfo"=fmodex64_orig.#656 @656
    "FMOD_System_GetRecordDriverInfoW"=fmodex64_orig.#657 @657
    "FMOD_System_GetRecordNumDrivers"=fmodex64_orig.#658 @658
    "FMOD_System_GetRecordPosition"=fmodex64_orig.#659 @659
    "FMOD_System_GetReverbAmbientProperties"=fmodex64_orig.#660 @660
    "FMOD_System_GetReverbProperties"=fmodex64_orig.#661 @661
    "FMOD_System_GetSoftwareChannels"=fmodex64_orig.#662 @662
    "FMOD_System_GetSoftwareFormat"=fmodex64_orig.#663 @663
    "FMOD_System_GetSoundRAM"=fmodex64_orig.#664 @664
    "FMOD_System_GetSpeakerMode"=fmodex64_orig.#665 @665
    "FMOD_System_GetSpectrum"=fmodex64_orig.#666 @666
    "FMOD_System_GetStreamBufferSize"=fmodex64_orig.#667 @667
    "FMOD_System_GetUserData"=fmodex64_orig.#668 @668
    "FMOD_System_GetVersion"=fmodex64_orig.#669 @669
    "FMOD_System_GetWaveData"=fmodex64_orig.#670 @670
    "FMOD_System_Init"=fmodex64_orig.#671 @671
    "FMOD_System_IsRecording"=fmodex64_orig.#672 @672
    "FMOD_System_LoadGeometry"=fmodex64_orig.#673 @673
    "FMOD_System_LoadPlugin"=fmodex64_orig.#674 @674
    "FMOD_System_LockDSP"=fmodex64_orig.#675 @675
    "FMOD_System_PlayDSP"=fmodex64_orig.#676 @676
    "FMOD_System_PlaySound"=fmodex64_orig.#677 @677
    "FMOD_System_RecordStart"=fmodex64_orig.#678 @678
    "FMOD_System_RecordStop"=fmodex64_orig.#679 @679
    "FMOD_System_RegisterCodec"=fmodex64_orig.#680 @680
    "FMOD_System_RegisterDSP"=fmodex64_orig.#681 @681
    "FMOD_System_Release"=fmodex64_orig.#682 @682
    "FMOD_System_Set3DListenerAttributes"=fmodex64_orig.#683 @683
    "FMOD_System_Set3DNumListeners"=fmodex64_orig.#684 @684
    "FMOD_System_Set3DRolloffCallback"=fmodex64_orig.#685 @685
    "FMOD_System_Set3DSettings"=fmodex64_orig.#686 @686
    "FMOD_System_Set3DSpeakerPosition"=fmodex64_orig.#687 @687
    "FMOD_System_SetAdvancedSettings"=fmodex64_orig.#688 @688
    "FMOD_System_SetCallback"=fmodex64_orig.#689 @689
    "FMOD_System_SetDSPBufferSize"=fmodex64_orig.#690 @690
    "FMOD_System_SetDriver"=fmodex64_orig.#691 @691
    "FMOD_System_SetFileSystem"=fmodex64_orig.#692 @692
    "FMOD_System_SetGeometrySettings"=fmodex64_orig.#693 @693
    "FMOD_System_SetHardwareChannels"=fmodex64_orig.#694 @694
    "FMOD_System_SetNetworkProxy"=fmodex64_orig.#695 @695
    "FMOD_System_SetNetworkTimeout"=fmodex64_orig.#696 @696
    "FMOD_System_SetOutput"=fmodex64_orig.#697 @697
    "FMOD_System_SetOutputByPlugin"=fmodex64_orig.#698 @698
    "FMOD_System_SetPluginPath"=fmodex64_orig.#699 @699
    "FMOD_System_SetReverbAmbientProperties"=fmodex64_orig.#700 @700
    "FMOD_System_SetReverbProperties"=fmodex64_orig.#701 @701
    "FMOD_System_SetSoftwareChannels"=fmodex64_orig.#702 @702
    "FMOD_System_SetSoftwareFormat"=fmodex64_orig.#703 @703
    "FMOD_System_SetSpeakerMode"=fmodex64_orig.#704 @704
    "FMOD_System_SetStreamBufferSize"=fmodex64_orig.#705 @705
    "FMOD_System_SetUserData"=fmodex64_orig.#706 @706
    "FMOD_System_UnloadPlugin"=fmodex64_orig.#707 @707
    "FMOD_System_UnlockDSP"=fmodex64_orig.#708 @708
    "FMOD_System_Update"=fmodex64_orig.#709 @709
